target datalayout = "e-m:e-p270:32:32-p271:32:32-p272:64:64-i64:64-i128:128-f80:128-n8:16:32:64-S128"
target triple = "x86_64-pc-linux-gnu"

%struct.REParseState = type { %struct.DynBuf, ptr, ptr, ptr, i32, i32, i32, i32, i32, i32, i32, ptr, %struct.DynBuf, %union.anon }
%struct.DynBuf = type { ptr, i64, i64, i32, ptr, ptr }
%union.anon = type { [128 x i8] }

; Function Attrs: nounwind uwtable
define internal i32 @dbuf_put_u32(ptr noundef %0, i32 noundef %1) #0 {
  %3 = alloca ptr, align 8
  %4 = alloca i32, align 4
  store ptr %0, ptr %3, align 8
  store i32 %1, ptr %4, align 4
  %5 = load ptr, ptr %3, align 8
  %6 = call i32 @dbuf_put(ptr noundef %5, ptr noundef %4, i64 noundef 4)
  ret i32 %6
}

; Function Attrs: nounwind uwtable
define internal i32 @re_emit_op_u32(ptr noundef %0, i32 noundef %1, i32 noundef %2) #0 {
  %4 = alloca ptr, align 8
  %5 = alloca i32, align 4
  %6 = alloca i32, align 4
  %7 = alloca i32, align 4
  store ptr %0, ptr %4, align 8
  store i32 %1, ptr %5, align 4
  store i32 %2, ptr %6, align 4
  %8 = load ptr, ptr %4, align 8
  %9 = getelementptr inbounds %struct.REParseState, ptr %8, i32 0, i32 0
  %10 = load i32, ptr %5, align 4
  %11 = trunc i32 %10 to i8
  %12 = call i32 @dbuf_putc(ptr noundef %9, i8 noundef zeroext %11)
  %13 = load ptr, ptr %4, align 8
  %14 = getelementptr inbounds %struct.REParseState, ptr %13, i32 0, i32 0
  %15 = getelementptr inbounds %struct.DynBuf, ptr %14, i32 0, i32 1
  %16 = load i64, ptr %15, align 8
  %17 = trunc i64 %16 to i32
  store i32 %17, ptr %7, align 4
  %18 = load ptr, ptr %4, align 8
  %19 = getelementptr inbounds %struct.REParseState, ptr %18, i32 0, i32 0
  %20 = load i32, ptr %6, align 4
  %21 = call i32 @dbuf_put_u32(ptr noundef %19, i32 noundef %20)
  %22 = load i32, ptr %7, align 4
  ret i32 %22
}