; Function Attrs: nounwind uwtable
define internal fastcc void @re_emit_op_u32(ptr noundef %0, i32 noundef %1, i32 noundef %2) unnamed_addr #2 {
  %4 = alloca i32, align 4
  %5 = trunc i32 %1 to i8
  %6 = tail call i32 @dbuf_putc(ptr noundef %0, i8 noundef zeroext %5) #17
  call void @llvm.lifetime.start.p0(i64 4, ptr nonnull %4)
  store i32 %2, ptr %4, align 4
  %7 = call i32 @dbuf_put(ptr noundef %0, ptr noundef nonnull %4, i64 noundef 4) #17
  call void @llvm.lifetime.end.p0(i64 4, ptr nonnull %4)
  ret void
}